target datalayout = "e-m:e-p270:32:32-p271:32:32-p272:64:64-i64:64-i128:128-f80:128-n8:16:32:64-S128"
target triple = "x86_64-pc-linux-gnu"

%"class.mbp::term_graph" = type <{ ptr, %class.ptr_vector, %class.ref_vector, %class.u_map, %class.ref_vector.2, ptr, i8, i8, [6 x i8], %class.u_map.7, %class.plugin_manager, %class.ptr_hashtable, %class.vector.16, %"class.mbp::term_graph::is_variable_proc", %class.vector.16, %class.vector.19, %"struct.mbp::term_graph::add_deq_proc", [4 x i8] }>
%class.ptr_vector = type { %class.vector }
%class.vector = type { ptr }
%class.ref_vector = type { %class.ref_vector_core }
%class.ref_vector_core = type { %class.ref_manager_wrapper, %class.ptr_vector.0 }
%class.ref_manager_wrapper = type { ptr }
%class.ptr_vector.0 = type { %class.vector.1 }
%class.vector.1 = type { ptr }
%class.u_map = type { %class.map }
%class.map = type { %class.table2map }
%class.table2map = type { %class.core_hashtable }
%class.core_hashtable = type <{ ptr, i32, i32, i32, [4 x i8] }>
%class.ref_vector.2 = type { %class.ref_vector_core.3 }
%class.ref_vector_core.3 = type { %class.ref_manager_wrapper.4, %class.ptr_vector.5 }
%class.ref_manager_wrapper.4 = type { ptr }
%class.ptr_vector.5 = type { %class.vector.6 }
%class.vector.6 = type { ptr }
%class.u_map.7 = type { %class.map.8 }
%class.map.8 = type { %class.table2map.9 }
%class.table2map.9 = type { %class.core_hashtable.10 }
%class.core_hashtable.10 = type <{ ptr, i32, i32, i32, [4 x i8] }>
%class.plugin_manager = type { %class.ptr_vector.12, %class.ptr_vector.12 }
%class.ptr_vector.12 = type { %class.vector.13 }
%class.vector.13 = type { ptr }
%class.ptr_hashtable = type { %class.core_hashtable.base.15, [4 x i8] }
%class.core_hashtable.base.15 = type <{ ptr, i32, i32, i32 }>
%"class.mbp::term_graph::is_variable_proc" = type { %class.is_variable_proc, i8, [7 x i8], %class.obj_hashtable, %class.obj_hashtable }
%class.is_variable_proc = type { ptr }
%class.obj_hashtable = type { %class.core_hashtable.base.18, [4 x i8] }
%class.core_hashtable.base.18 = type <{ ptr, i32, i32, i32 }>
%class.vector.16 = type { ptr }
%class.vector.19 = type { ptr }
%"struct.mbp::term_graph::add_deq_proc" = type { i32 }
%"struct.std::pair" = type { ptr, ptr }

; Function Attrs: mustprogress nounwind uwtable
define linkonce_odr hidden noundef nonnull align 8 dereferenceable(16) ptr @_ZN6vectorISt4pairIPN3mbp4termES3_ELb1EjEixEj(ptr noundef nonnull align 8 dereferenceable(8) %0, i32 noundef %1) #6 comdat align 2 {
  %3 = alloca ptr, align 8
  %4 = alloca i32, align 4
  store ptr %0, ptr %3, align 8, !tbaa !156
  store i32 %1, ptr %4, align 4, !tbaa !27
  %5 = load ptr, ptr %3, align 8
  %6 = getelementptr inbounds nuw %class.vector.16, ptr %5, i32 0, i32 0
  %7 = load ptr, ptr %6, align 8, !tbaa !158
  %8 = load i32, ptr %4, align 4, !tbaa !27
  %9 = zext i32 %8 to i64
  %10 = getelementptr inbounds nuw %"struct.std::pair", ptr %7, i64 %9
  ret ptr %10
}

; Function Attrs: mustprogress nounwind uwtable
define linkonce_odr hidden noundef i32 @_ZNK6vectorISt4pairIPN3mbp4termES3_ELb1EjE4sizeEv(ptr noundef nonnull align 8 dereferenceable(8) %0) #6 comdat align 2 {
  %2 = alloca i32, align 4
  %3 = alloca ptr, align 8
  store ptr %0, ptr %3, align 8, !tbaa !156
  %4 = load ptr, ptr %3, align 8
  %5 = getelementptr inbounds nuw %class.vector.16, ptr %4, i32 0, i32 0
  %6 = load ptr, ptr %5, align 8, !tbaa !158
  %7 = icmp eq ptr %6, null
  br i1 %7, label %8, label %9

8:                                                ; preds = %1
  store i32 0, ptr %2, align 4
  br label %14

9:                                                ; preds = %1
  %10 = getelementptr inbounds nuw %class.vector.16, ptr %4, i32 0, i32 0
  %11 = load ptr, ptr %10, align 8, !tbaa !158
  %12 = getelementptr inbounds i32, ptr %11, i64 -1
  %13 = load i32, ptr %12, align 4, !tbaa !27
  store i32 %13, ptr %2, align 4
  br label %14

14:                                               ; preds = %9, %8
  %15 = load i32, ptr %2, align 4
  ret i32 %15
}

; Function Attrs: mustprogress uwtable
define linkonce_odr hidden void @_ZN6vectorISt4pairIPN3mbp4termES3_ELb1EjE8pop_backEv(ptr noundef nonnull align 8 dereferenceable(8) %0) #4 comdat align 2 {
  %2 = alloca ptr, align 8
  store ptr %0, ptr %2, align 8, !tbaa !156
  %3 = load ptr, ptr %2, align 8
  %4 = call noundef nonnull align 8 dereferenceable(16) ptr @_ZN6vectorISt4pairIPN3mbp4termES3_ELb1EjE4backEv(ptr noundef nonnull align 8 dereferenceable(8) %3)
  %5 = getelementptr inbounds nuw %class.vector.16, ptr %3, i32 0, i32 0
  %6 = load ptr, ptr %5, align 8, !tbaa !158
  %7 = getelementptr inbounds i32, ptr %6, i64 -1
  %8 = load i32, ptr %7, align 4, !tbaa !27
  %9 = add i32 %8, -1
  store i32 %9, ptr %7, align 4, !tbaa !27
  ret void
}

; Function Attrs: mustprogress uwtable
define linkonce_odr hidden noundef nonnull align 8 dereferenceable(16) ptr @_ZN6vectorISt4pairIPN3mbp4termES3_ELb1EjE4backEv(ptr noundef nonnull align 8 dereferenceable(8) %0) #4 comdat align 2 {
  %2 = alloca ptr, align 8
  store ptr %0, ptr %2, align 8, !tbaa !156
  %3 = load ptr, ptr %2, align 8
  %4 = call noundef i32 @_ZNK6vectorISt4pairIPN3mbp4termES3_ELb1EjE4sizeEv(ptr noundef nonnull align 8 dereferenceable(8) %3)
  %5 = sub i32 %4, 1
  %6 = call noundef nonnull align 8 dereferenceable(16) ptr @_ZN6vectorISt4pairIPN3mbp4termES3_ELb1EjEixEj(ptr noundef nonnull align 8 dereferenceable(8) %3, i32 noundef %5)
  ret ptr %6
}

; Function Attrs: mustprogress nounwind uwtable
define linkonce_odr hidden noundef zeroext i1 @_ZNK6vectorISt4pairIPN3mbp4termES3_ELb1EjE5emptyEv(ptr noundef nonnull align 8 dereferenceable(8) %0) #6 comdat align 2 {
  %2 = alloca ptr, align 8
  store ptr %0, ptr %2, align 8, !tbaa !156
  %3 = load ptr, ptr %2, align 8
  %4 = getelementptr inbounds nuw %class.vector.16, ptr %3, i32 0, i32 0
  %5 = load ptr, ptr %4, align 8, !tbaa !158
  %6 = icmp eq ptr %5, null
  br i1 %6, label %13, label %7

7:                                                ; preds = %1
  %8 = getelementptr inbounds nuw %class.vector.16, ptr %3, i32 0, i32 0
  %9 = load ptr, ptr %8, align 8, !tbaa !158
  %10 = getelementptr inbounds i32, ptr %9, i64 -1
  %11 = load i32, ptr %10, align 4, !tbaa !27
  %12 = icmp eq i32 %11, 0
  br label %13

13:                                               ; preds = %7, %1
  %14 = phi i1 [ true, %1 ], [ %12, %7 ]
  ret i1 %14
}

; Function Attrs: mustprogress uwtable
define hidden void @_ZN3mbp10term_graph11merge_flushEv(ptr noundef nonnull align 8 dereferenceable(244) %0) #4 align 2 {
  %2 = alloca ptr, align 8
  %3 = alloca ptr, align 8
  %4 = alloca ptr, align 8
  store ptr %0, ptr %2, align 8, !tbaa !12
  %5 = load ptr, ptr %2, align 8
  br label %6

6:                                                ; preds = %10, %1
  %7 = getelementptr inbounds nuw %"class.mbp::term_graph", ptr %5, i32 0, i32 12
  %8 = call noundef zeroext i1 @_ZNK6vectorISt4pairIPN3mbp4termES3_ELb1EjE5emptyEv(ptr noundef nonnull align 8 dereferenceable(8) %7)
  %9 = xor i1 %8, true
  br i1 %9, label %10, label %22

10:                                               ; preds = %6
  call void @llvm.lifetime.start.p0(i64 8, ptr %3) #3
  %11 = getelementptr inbounds nuw %"class.mbp::term_graph", ptr %5, i32 0, i32 12
  %12 = call noundef nonnull align 8 dereferenceable(16) ptr @_ZN6vectorISt4pairIPN3mbp4termES3_ELb1EjE4backEv(ptr noundef nonnull align 8 dereferenceable(8) %11)
  %13 = getelementptr inbounds nuw %"struct.std::pair", ptr %12, i32 0, i32 0
  %14 = load ptr, ptr %13, align 8, !tbaa !219
  store ptr %14, ptr %3, align 8, !tbaa !20
  call void @llvm.lifetime.start.p0(i64 8, ptr %4) #3
  %15 = getelementptr inbounds nuw %"class.mbp::term_graph", ptr %5, i32 0, i32 12
  %16 = call noundef nonnull align 8 dereferenceable(16) ptr @_ZN6vectorISt4pairIPN3mbp4termES3_ELb1EjE4backEv(ptr noundef nonnull align 8 dereferenceable(8) %15)
  %17 = getelementptr inbounds nuw %"struct.std::pair", ptr %16, i32 0, i32 1
  %18 = load ptr, ptr %17, align 8, !tbaa !221
  store ptr %18, ptr %4, align 8, !tbaa !20
  %19 = getelementptr inbounds nuw %"class.mbp::term_graph", ptr %5, i32 0, i32 12
  call void @_ZN6vectorISt4pairIPN3mbp4termES3_ELb1EjE8pop_backEv(ptr noundef nonnull align 8 dereferenceable(8) %19)
  %20 = load ptr, ptr %3, align 8, !tbaa !20
  %21 = load ptr, ptr %4, align 8, !tbaa !20
  call void @_ZN3mbp10term_graph5mergeERNS_4termES2_(ptr noundef nonnull align 8 dereferenceable(244) %5, ptr noundef nonnull align 8 dereferenceable(88) %20, ptr noundef nonnull align 8 dereferenceable(88) %21)
  call void @llvm.lifetime.end.p0(i64 8, ptr %4) #3
  call void @llvm.lifetime.end.p0(i64 8, ptr %3) #3
  br label %6, !llvm.loop !222

22:                                               ; preds = %6
  ret void
}