; Function Attrs: mustprogress uwtable
define hidden void @_ZN3mbp10term_graph11merge_flushEv(ptr noundef nonnull align 8 dereferenceable(244) %0) local_unnamed_addr #3 align 2 {
  %2 = getelementptr inbounds nuw i8, ptr %0, i64 152
  %3 = load ptr, ptr %2, align 8, !tbaa !159
  %4 = icmp eq ptr %3, null
  br i1 %4, label %_ZNK6vectorISt4pairIPN3mbp4termES3_ELb1EjE5emptyEv.exit.thread, label %_ZNK6vectorISt4pairIPN3mbp4termES3_ELb1EjE5emptyEv.exit

_ZNK6vectorISt4pairIPN3mbp4termES3_ELb1EjE5emptyEv.exit: ; preds = %1, %_ZN6vectorISt4pairIPN3mbp4termES3_ELb1EjE4backEv.exit4
  %5 = phi ptr [ %15, %_ZN6vectorISt4pairIPN3mbp4termES3_ELb1EjE4backEv.exit4 ], [ %3, %1 ]
  %6 = getelementptr inbounds i8, ptr %5, i64 -4
  %7 = load i32, ptr %6, align 4, !tbaa !34
  %8 = icmp eq i32 %7, 0
  br i1 %8, label %_ZNK6vectorISt4pairIPN3mbp4termES3_ELb1EjE5emptyEv.exit.thread, label %_ZN6vectorISt4pairIPN3mbp4termES3_ELb1EjE4backEv.exit4

_ZN6vectorISt4pairIPN3mbp4termES3_ELb1EjE4backEv.exit4: ; preds = %_ZNK6vectorISt4pairIPN3mbp4termES3_ELb1EjE5emptyEv.exit
  %9 = add i32 %7, -1
  %10 = zext i32 %9 to i64
  %11 = getelementptr inbounds nuw %"struct.std::pair", ptr %5, i64 %10
  %12 = load ptr, ptr %11, align 8, !tbaa !208
  %13 = getelementptr inbounds nuw %"struct.std::pair", ptr %5, i64 %10, i32 1
  %14 = load ptr, ptr %13, align 8, !tbaa !210
  store i32 %9, ptr %6, align 4, !tbaa !34
  tail call void @_ZN3mbp10term_graph5mergeERNS_4termES2_(ptr noundef nonnull align 8 dereferenceable(244) %0, ptr noundef nonnull align 8 dereferenceable(88) %12, ptr noundef nonnull align 8 dereferenceable(88) %14)
  %15 = load ptr, ptr %2, align 8, !tbaa !159
  %16 = icmp eq ptr %15, null
  br i1 %16, label %_ZNK6vectorISt4pairIPN3mbp4termES3_ELb1EjE5emptyEv.exit.thread, label %_ZNK6vectorISt4pairIPN3mbp4termES3_ELb1EjE5emptyEv.exit, !llvm.loop !211

_ZNK6vectorISt4pairIPN3mbp4termES3_ELb1EjE5emptyEv.exit.thread: ; preds = %_ZNK6vectorISt4pairIPN3mbp4termES3_ELb1EjE5emptyEv.exit, %_ZN6vectorISt4pairIPN3mbp4termES3_ELb1EjE4backEv.exit4, %1
  ret void
}